; Function Attrs: mustprogress uwtable
define void @_ZN5faiss23ResidualCoarseQuantizerC2EiRKSt6vectorImSaImEENS_10MetricTypeE(ptr noundef nonnull align 8 dereferenceable(508) %0, i32 noundef %1, ptr noundef nonnull align 8 dereferenceable(24) %2, i32 noundef %3) unnamed_addr #2 align 2 personality ptr @__gxx_personality_v0 {
  %5 = alloca %"class.std::__cxx11::basic_string", align 8
  %6 = sext i32 %1 to i64
  %7 = getelementptr inbounds i8, ptr %0, i64 72
  %8 = getelementptr inbounds i8, ptr %0, i64 8
  store i32 %1, ptr %8, align 8
  %9 = getelementptr inbounds i8, ptr %0, i64 16
  store i64 0, ptr %9, align 8
  %10 = getelementptr inbounds i8, ptr %0, i64 24
  store i8 0, ptr %10, align 8
  %11 = getelementptr inbounds i8, ptr %0, i64 25
  store i8 1, ptr %11, align 1
  %12 = getelementptr inbounds i8, ptr %0, i64 28
  store i32 %3, ptr %12, align 4
  %13 = getelementptr inbounds i8, ptr %0, i64 32
  store float 0.000000e+00, ptr %13, align 8
  %14 = getelementptr inbounds i8, ptr %0, i64 40
  store ptr %7, ptr %14, align 8
  %15 = getelementptr inbounds i8, ptr %0, i64 48
  tail call void @llvm.memset.p0.i64(ptr noundef nonnull align 8 dereferenceable(24) %15, i8 0, i64 24, i1 false)
  store ptr getelementptr inbounds ({ [24 x ptr] }, ptr @_ZTVN5faiss23ResidualCoarseQuantizerE, i64 0, i32 0, i64 2), ptr %0, align 8
  invoke void @_ZN5faiss17ResidualQuantizerC1EmRKSt6vectorImSaImEENS_17AdditiveQuantizer13Search_type_tE(ptr noundef nonnull align 8 dereferenceable(432) %7, i64 noundef %6, ptr noundef nonnull align 8 dereferenceable(24) %2, i32 noundef 0)
          to label %16 unwind label %32

16:                                               ; preds = %4
  %17 = getelementptr inbounds i8, ptr %0, i64 504
  store float 4.000000e+00, ptr %17, align 8
  %18 = getelementptr inbounds i8, ptr %0, i64 176
  %19 = load i64, ptr %18, align 8
  %20 = icmp ult i64 %19, 64
  br i1 %20, label %39, label %21

21:                                               ; preds = %16
  call void @_ZNSt7__cxx1112basic_stringIcSt11char_traitsIcESaIcEEC1Ev(ptr noundef nonnull align 8 dereferenceable(32) %5) #14
  %22 = call i32 (ptr, i64, ptr, ...) @snprintf(ptr noundef null, i64 noundef 0, ptr noundef nonnull @.str, ptr noundef nonnull @.str.16) #14
  %23 = add nsw i32 %22, 1
  %24 = sext i32 %23 to i64
  invoke void @_ZNSt7__cxx1112basic_stringIcSt11char_traitsIcESaIcEE6resizeEm(ptr noundef nonnull align 8 dereferenceable(32) %5, i64 noundef %24)
          to label %25 unwind label %34

25:                                               ; preds = %21
  %26 = invoke noundef nonnull align 1 dereferenceable(1) ptr @_ZNSt7__cxx1112basic_stringIcSt11char_traitsIcESaIcEEixEm(ptr noundef nonnull align 8 dereferenceable(32) %5, i64 noundef 0)
          to label %27 unwind label %34

27:                                               ; preds = %25
  %28 = call noundef i64 @_ZNKSt7__cxx1112basic_stringIcSt11char_traitsIcESaIcEE4sizeEv(ptr noundef nonnull align 8 dereferenceable(32) %5) #14
  %29 = call i32 (ptr, i64, ptr, ...) @snprintf(ptr noundef nonnull %26, i64 noundef %28, ptr noundef nonnull @.str, ptr noundef nonnull @.str.16) #14
  %30 = call ptr @__cxa_allocate_exception(i64 40) #14
  invoke void @_ZN5faiss14FaissExceptionC1ERKNSt7__cxx1112basic_stringIcSt11char_traitsIcESaIcEEEPKcSA_i(ptr noundef nonnull align 8 dereferenceable(40) %30, ptr noundef nonnull align 8 dereferenceable(32) %5, ptr noundef nonnull @__PRETTY_FUNCTION__._ZN5faiss23ResidualCoarseQuantizerC2EiRKSt6vectorImSaImEENS_10MetricTypeE, ptr noundef nonnull @.str.2, i32 noundef 485)
          to label %31 unwind label %36

31:                                               ; preds = %27
  invoke void @__cxa_throw(ptr nonnull %30, ptr nonnull @_ZTIN5faiss14FaissExceptionE, ptr nonnull @_ZN5faiss14FaissExceptionD2Ev) #21
          to label %41 unwind label %34

32:                                               ; preds = %4
  %33 = landingpad { ptr, i32 }
          cleanup
  br label %40

34:                                               ; preds = %31, %25, %21
  %35 = landingpad { ptr, i32 }
          cleanup
  br label %38

36:                                               ; preds = %27
  %37 = landingpad { ptr, i32 }
          cleanup
  call void @__cxa_free_exception(ptr %30) #14
  br label %38

38:                                               ; preds = %36, %34
  %.pn = phi { ptr, i32 } [ %35, %34 ], [ %37, %36 ]
  call void @_ZNSt7__cxx1112basic_stringIcSt11char_traitsIcESaIcEED1Ev(ptr noundef nonnull align 8 dereferenceable(32) %5) #14
  call void @_ZN5faiss17ResidualQuantizerD2Ev(ptr noundef nonnull align 8 dereferenceable(432) %7) #14
  br label %40

39:                                               ; preds = %16
  store i8 0, ptr %11, align 1
  ret void

40:                                               ; preds = %38, %32
  %.pn.pn = phi { ptr, i32 } [ %.pn, %38 ], [ %33, %32 ]
  call void @_ZN5faiss23AdditiveCoarseQuantizerD2Ev(ptr noundef nonnull align 8 dereferenceable(72) %0) #14
  resume { ptr, i32 } %.pn.pn

41:                                               ; preds = %31
  unreachable
}